target datalayout = "e-m:e-p270:32:32-p271:32:32-p272:64:64-i64:64-i128:128-f80:128-n8:16:32:64-S128"
target triple = "x86_64-pc-linux-gnu"

%struct.Saig_ParBmc_t_ = type { i32, i32, i32, i32, i32, i32, i32, i32, i32, i32, i32, i32, i32, i32, i32, i32, i32, i32, i32, i32, i32, i32, i32, ptr, i32, i32, i32, i32, i64, ptr, i32, ptr }

; Function Attrs: nounwind uwtable
define void @Saig_ParBmcSetDefaultParams(ptr noundef %0) #0 {
  %2 = alloca ptr, align 8
  store ptr %0, ptr %2, align 8, !tbaa !183
  %3 = load ptr, ptr %2, align 8, !tbaa !183
  call void @llvm.memset.p0.i64(ptr align 8 %3, i8 0, i64 152, i1 false)
  %4 = load ptr, ptr %2, align 8, !tbaa !183
  %5 = getelementptr inbounds nuw %struct.Saig_ParBmc_t_, ptr %4, i32 0, i32 0
  store i32 0, ptr %5, align 8, !tbaa !184
  %6 = load ptr, ptr %2, align 8, !tbaa !183
  %7 = getelementptr inbounds nuw %struct.Saig_ParBmc_t_, ptr %6, i32 0, i32 1
  store i32 0, ptr %7, align 4, !tbaa !185
  %8 = load ptr, ptr %2, align 8, !tbaa !183
  %9 = getelementptr inbounds nuw %struct.Saig_ParBmc_t_, ptr %8, i32 0, i32 2
  store i32 0, ptr %9, align 8, !tbaa !186
  %10 = load ptr, ptr %2, align 8, !tbaa !183
  %11 = getelementptr inbounds nuw %struct.Saig_ParBmc_t_, ptr %10, i32 0, i32 3
  store i32 0, ptr %11, align 4, !tbaa !187
  %12 = load ptr, ptr %2, align 8, !tbaa !183
  %13 = getelementptr inbounds nuw %struct.Saig_ParBmc_t_, ptr %12, i32 0, i32 4
  store i32 0, ptr %13, align 8, !tbaa !188
  %14 = load ptr, ptr %2, align 8, !tbaa !183
  %15 = getelementptr inbounds nuw %struct.Saig_ParBmc_t_, ptr %14, i32 0, i32 5
  store i32 0, ptr %15, align 4, !tbaa !189
  %16 = load ptr, ptr %2, align 8, !tbaa !183
  %17 = getelementptr inbounds nuw %struct.Saig_ParBmc_t_, ptr %16, i32 0, i32 6
  store i32 0, ptr %17, align 8, !tbaa !190
  %18 = load ptr, ptr %2, align 8, !tbaa !183
  %19 = getelementptr inbounds nuw %struct.Saig_ParBmc_t_, ptr %18, i32 0, i32 8
  store i32 0, ptr %19, align 8, !tbaa !191
  %20 = load ptr, ptr %2, align 8, !tbaa !183
  %21 = getelementptr inbounds nuw %struct.Saig_ParBmc_t_, ptr %20, i32 0, i32 9
  store i32 0, ptr %21, align 4, !tbaa !192
  %22 = load ptr, ptr %2, align 8, !tbaa !183
  %23 = getelementptr inbounds nuw %struct.Saig_ParBmc_t_, ptr %22, i32 0, i32 12
  store i32 0, ptr %23, align 8, !tbaa !193
  %24 = load ptr, ptr %2, align 8, !tbaa !183
  %25 = getelementptr inbounds nuw %struct.Saig_ParBmc_t_, ptr %24, i32 0, i32 18
  store i32 10000, ptr %25, align 8, !tbaa !194
  %26 = load ptr, ptr %2, align 8, !tbaa !183
  %27 = getelementptr inbounds nuw %struct.Saig_ParBmc_t_, ptr %26, i32 0, i32 19
  store i32 2000, ptr %27, align 4, !tbaa !195
  %28 = load ptr, ptr %2, align 8, !tbaa !183
  %29 = getelementptr inbounds nuw %struct.Saig_ParBmc_t_, ptr %28, i32 0, i32 20
  store i32 80, ptr %29, align 8, !tbaa !196
  %30 = load ptr, ptr %2, align 8, !tbaa !183
  %31 = getelementptr inbounds nuw %struct.Saig_ParBmc_t_, ptr %30, i32 0, i32 21
  store i32 0, ptr %31, align 4, !tbaa !137
  %32 = load ptr, ptr %2, align 8, !tbaa !183
  %33 = getelementptr inbounds nuw %struct.Saig_ParBmc_t_, ptr %32, i32 0, i32 22
  store i32 0, ptr %33, align 8, !tbaa !197
  %34 = load ptr, ptr %2, align 8, !tbaa !183
  %35 = getelementptr inbounds nuw %struct.Saig_ParBmc_t_, ptr %34, i32 0, i32 25
  store i32 -1, ptr %35, align 4, !tbaa !198
  %36 = load ptr, ptr %2, align 8, !tbaa !183
  %37 = getelementptr inbounds nuw %struct.Saig_ParBmc_t_, ptr %36, i32 0, i32 26
  store i32 0, ptr %37, align 8, !tbaa !199
  %38 = load ptr, ptr %2, align 8, !tbaa !183
  %39 = getelementptr inbounds nuw %struct.Saig_ParBmc_t_, ptr %38, i32 0, i32 27
  store i32 0, ptr %39, align 4, !tbaa !200
  %40 = load ptr, ptr %2, align 8, !tbaa !183
  %41 = getelementptr inbounds nuw %struct.Saig_ParBmc_t_, ptr %40, i32 0, i32 28
  store i64 0, ptr %41, align 8, !tbaa !201
  ret void
}