; Function Attrs: mustprogress nofree norecurse nosync nounwind willreturn memory(argmem: write) uwtable
define void @Saig_ParBmcSetDefaultParams(ptr noundef writeonly captures(none) initializes((0, 152)) %0) local_unnamed_addr #15 {
  %2 = getelementptr inbounds nuw i8, ptr %0, i64 72
  tail call void @llvm.memset.p0.i64(ptr noundef nonnull align 8 dereferenceable(152) %0, i8 0, i64 152, i1 false)
  store i32 10000, ptr %2, align 8, !tbaa !185
  %3 = getelementptr inbounds nuw i8, ptr %0, i64 76
  store i32 2000, ptr %3, align 4, !tbaa !186
  %4 = getelementptr inbounds nuw i8, ptr %0, i64 80
  store i32 80, ptr %4, align 8, !tbaa !187
  %5 = getelementptr inbounds nuw i8, ptr %0, i64 88
  store i32 0, ptr %5, align 8, !tbaa !188
  %6 = getelementptr inbounds nuw i8, ptr %0, i64 108
  store i32 -1, ptr %6, align 4, !tbaa !189
  %7 = getelementptr inbounds nuw i8, ptr %0, i64 112
  tail call void @llvm.memset.p0.i64(ptr noundef nonnull align 8 dereferenceable(16) %7, i8 0, i64 16, i1 false)
  ret void
}